target datalayout = "e-m:e-p270:32:32-p271:32:32-p272:64:64-i64:64-i128:128-f80:128-n8:16:32:64-S128"
target triple = "x86_64-pc-linux-gnu"

%struct.H5G_loc_t = type { ptr, ptr }
%struct.H5L_trav_gi_t = type { ptr }

@.str = private unnamed_addr constant [100 x i8] c"generated/home/dtcxzyw/WorkSpace/Projects/compilers/llvm-opt-benchmark/bench/hdf5/hdf5/src/H5Lint.c\00", align 1
@H5E_LINK_g = external global i64, align 8
@H5E_NOTFOUND_g = external global i64, align 8
@.str.11 = private unnamed_addr constant [19 x i8] c"name doesn't exist\00", align 1
@H5E_CANTGET_g = external global i64, align 8
@__func__.H5L__get_info_cb = private unnamed_addr constant [17 x i8] c"H5L__get_info_cb\00", align 1
@.str.67 = private unnamed_addr constant [20 x i8] c"can't get link info\00", align 1

; Function Attrs: nounwind uwtable
define internal i32 @H5L__get_info_cb(ptr noundef %0, ptr noundef %1, ptr noundef %2, ptr noundef %3, ptr noundef %4, ptr noundef %5) #0 {
  %7 = alloca ptr, align 8
  %8 = alloca ptr, align 8
  %9 = alloca ptr, align 8
  %10 = alloca ptr, align 8
  %11 = alloca ptr, align 8
  %12 = alloca ptr, align 8
  %13 = alloca ptr, align 8
  %14 = alloca i32, align 4
  %15 = alloca i8, align 1
  store ptr %0, ptr %7, align 8
  store ptr %1, ptr %8, align 8
  store ptr %2, ptr %9, align 8
  store ptr %3, ptr %10, align 8
  store ptr %4, ptr %11, align 8
  store ptr %5, ptr %12, align 8
  %16 = load ptr, ptr %11, align 8
  store ptr %16, ptr %13, align 8
  store i32 0, ptr %14, align 4
  store i8 0, ptr %15, align 1
  %17 = load ptr, ptr %9, align 8
  %18 = icmp eq ptr %17, null
  br i1 %18, label %19, label %34

19:                                               ; preds = %6
  br label %20

20:                                               ; preds = %19
  br label %21

21:                                               ; preds = %20
  br label %22

22:                                               ; preds = %21
  %23 = load i64, ptr @H5E_LINK_g, align 8
  %24 = load i64, ptr @H5E_NOTFOUND_g, align 8
  %25 = call i32 (ptr, ptr, i32, i64, i64, ptr, ...) @H5E_printf_stack(ptr noundef @.str, ptr noundef @__func__.H5L__get_info_cb, i32 noundef 1781, i64 noundef %23, i64 noundef %24, ptr noundef @.str.11)
  br label %26

26:                                               ; preds = %22
  store i8 1, ptr %15, align 1
  %27 = load i8, ptr %15, align 1
  %28 = trunc i8 %27 to i1
  %29 = zext i1 %28 to i8
  store i8 %29, ptr %15, align 1
  br label %30

30:                                               ; preds = %26
  br label %31

31:                                               ; preds = %30
  store i32 -1, ptr %14, align 4
  br label %60

32:                                               ; No predecessors!
  br label %33

33:                                               ; preds = %32
  br label %34

34:                                               ; preds = %33, %6
  %35 = load ptr, ptr %7, align 8
  %36 = getelementptr inbounds %struct.H5G_loc_t, ptr %35, i32 0, i32 0
  %37 = load ptr, ptr %36, align 8
  %38 = load ptr, ptr %9, align 8
  %39 = load ptr, ptr %13, align 8
  %40 = getelementptr inbounds %struct.H5L_trav_gi_t, ptr %39, i32 0, i32 0
  %41 = load ptr, ptr %40, align 8
  %42 = call i32 @H5G_link_to_info(ptr noundef %37, ptr noundef %38, ptr noundef %41)
  %43 = icmp slt i32 %42, 0
  br i1 %43, label %44, label %59

44:                                               ; preds = %34
  br label %45

45:                                               ; preds = %44
  br label %46

46:                                               ; preds = %45
  br label %47

47:                                               ; preds = %46
  %48 = load i64, ptr @H5E_LINK_g, align 8
  %49 = load i64, ptr @H5E_CANTGET_g, align 8
  %50 = call i32 (ptr, ptr, i32, i64, i64, ptr, ...) @H5E_printf_stack(ptr noundef @.str, ptr noundef @__func__.H5L__get_info_cb, i32 noundef 1785, i64 noundef %48, i64 noundef %49, ptr noundef @.str.67)
  br label %51

51:                                               ; preds = %47
  store i8 1, ptr %15, align 1
  %52 = load i8, ptr %15, align 1
  %53 = trunc i8 %52 to i1
  %54 = zext i1 %53 to i8
  store i8 %54, ptr %15, align 1
  br label %55

55:                                               ; preds = %51
  br label %56

56:                                               ; preds = %55
  store i32 -1, ptr %14, align 4
  br label %60

57:                                               ; No predecessors!
  br label %58

58:                                               ; preds = %57
  br label %59

59:                                               ; preds = %58, %34
  br label %60

60:                                               ; preds = %59, %56, %31
  %61 = load ptr, ptr %12, align 8
  store i32 0, ptr %61, align 4
  %62 = load i32, ptr %14, align 4
  ret i32 %62
}