; Function Attrs: nounwind uwtable
define internal range(i32 -1, 1) i32 @H5L__get_info_cb(ptr nocapture noundef readonly %0, ptr nocapture readnone %1, ptr noundef %2, ptr nocapture readnone %3, ptr nocapture noundef readonly %4, ptr nocapture noundef writeonly %5) #0 {
  %7 = icmp eq ptr %2, null
  br i1 %7, label %8, label %12

8:                                                ; preds = %6
  %9 = load i64, ptr @H5E_LINK_g, align 8
  %10 = load i64, ptr @H5E_NOTFOUND_g, align 8
  %11 = tail call i32 (ptr, ptr, i32, i64, i64, ptr, ...) @H5E_printf_stack(ptr noundef nonnull @.str, ptr noundef nonnull @__func__.H5L__get_info_cb, i32 noundef 1781, i64 noundef %9, i64 noundef %10, ptr noundef nonnull @.str.11) #10
  br label %21

12:                                               ; preds = %6
  %13 = load ptr, ptr %0, align 8
  %14 = load ptr, ptr %4, align 8
  %15 = tail call i32 @H5G_link_to_info(ptr noundef %13, ptr noundef nonnull %2, ptr noundef %14) #10
  %16 = icmp slt i32 %15, 0
  br i1 %16, label %17, label %21

17:                                               ; preds = %12
  %18 = load i64, ptr @H5E_LINK_g, align 8
  %19 = load i64, ptr @H5E_CANTGET_g, align 8
  %20 = tail call i32 (ptr, ptr, i32, i64, i64, ptr, ...) @H5E_printf_stack(ptr noundef nonnull @.str, ptr noundef nonnull @__func__.H5L__get_info_cb, i32 noundef 1785, i64 noundef %18, i64 noundef %19, ptr noundef nonnull @.str.67) #10
  br label %21

21:                                               ; preds = %12, %17, %8
  %.0 = phi i32 [ -1, %8 ], [ -1, %17 ], [ 0, %12 ]
  store i32 0, ptr %5, align 4
  ret i32 %.0
}